target datalayout = "e-m:e-p270:32:32-p271:32:32-p272:64:64-i64:64-i128:128-f80:128-n8:16:32:64-S128"
target triple = "x86_64-pc-linux-gnu"

; Function Attrs: nounwind uwtable
define internal i32 @looks_ucs16(ptr noundef %0, i64 noundef %1, ptr noundef %2, ptr noundef %3) #0 {
  %5 = alloca i32, align 4
  %6 = alloca ptr, align 8
  %7 = alloca i64, align 8
  %8 = alloca ptr, align 8
  %9 = alloca ptr, align 8
  %10 = alloca i32, align 4
  %11 = alloca i32, align 4
  %12 = alloca i64, align 8
  %13 = alloca i32, align 4
  %14 = alloca i32, align 4
  store ptr %0, ptr %6, align 8, !tbaa !23
  store i64 %1, ptr %7, align 8, !tbaa !26
  store ptr %2, ptr %8, align 8, !tbaa !13
  store ptr %3, ptr %9, align 8, !tbaa !13
  call void @llvm.lifetime.start.p0(i64 4, ptr %10) #6
  call void @llvm.lifetime.start.p0(i64 4, ptr %11) #6
  call void @llvm.lifetime.start.p0(i64 8, ptr %12) #6
  %15 = load i64, ptr %7, align 8, !tbaa !26
  %16 = icmp ult i64 %15, 2
  br i1 %16, label %17, label %18

17:                                               ; preds = %4
  store i32 0, ptr %5, align 4
  store i32 1, ptr %13, align 4
  br label %162

18:                                               ; preds = %4
  %19 = load ptr, ptr %6, align 8, !tbaa !23
  %20 = getelementptr inbounds i8, ptr %19, i64 0
  %21 = load i8, ptr %20, align 1, !tbaa !35
  %22 = zext i8 %21 to i32
  %23 = icmp eq i32 %22, 255
  br i1 %23, label %24, label %31

24:                                               ; preds = %18
  %25 = load ptr, ptr %6, align 8, !tbaa !23
  %26 = getelementptr inbounds i8, ptr %25, i64 1
  %27 = load i8, ptr %26, align 1, !tbaa !35
  %28 = zext i8 %27 to i32
  %29 = icmp eq i32 %28, 254
  br i1 %29, label %30, label %31

30:                                               ; preds = %24
  store i32 0, ptr %10, align 4, !tbaa !27
  br label %46

31:                                               ; preds = %24, %18
  %32 = load ptr, ptr %6, align 8, !tbaa !23
  %33 = getelementptr inbounds i8, ptr %32, i64 0
  %34 = load i8, ptr %33, align 1, !tbaa !35
  %35 = zext i8 %34 to i32
  %36 = icmp eq i32 %35, 254
  br i1 %36, label %37, label %44

37:                                               ; preds = %31
  %38 = load ptr, ptr %6, align 8, !tbaa !23
  %39 = getelementptr inbounds i8, ptr %38, i64 1
  %40 = load i8, ptr %39, align 1, !tbaa !35
  %41 = zext i8 %40 to i32
  %42 = icmp eq i32 %41, 255
  br i1 %42, label %43, label %44

43:                                               ; preds = %37
  store i32 1, ptr %10, align 4, !tbaa !27
  br label %45

44:                                               ; preds = %37, %31
  store i32 0, ptr %5, align 4
  store i32 1, ptr %13, align 4
  br label %162

45:                                               ; preds = %43
  br label %46

46:                                               ; preds = %45, %30
  %47 = load ptr, ptr %9, align 8, !tbaa !13
  store i64 0, ptr %47, align 8, !tbaa !26
  store i32 0, ptr %11, align 4, !tbaa !27
  store i64 2, ptr %12, align 8, !tbaa !26
  br label %48

48:                                               ; preds = %156, %46
  %49 = load i64, ptr %12, align 8, !tbaa !26
  %50 = add i64 %49, 1
  %51 = load i64, ptr %7, align 8, !tbaa !26
  %52 = icmp ult i64 %50, %51
  br i1 %52, label %53, label %159

53:                                               ; preds = %48
  call void @llvm.lifetime.start.p0(i64 4, ptr %14) #6
  %54 = load i32, ptr %10, align 4, !tbaa !27
  %55 = icmp ne i32 %54, 0
  br i1 %55, label %56, label %71

56:                                               ; preds = %53
  %57 = load ptr, ptr %6, align 8, !tbaa !23
  %58 = load i64, ptr %12, align 8, !tbaa !26
  %59 = add i64 %58, 1
  %60 = getelementptr inbounds nuw i8, ptr %57, i64 %59
  %61 = load i8, ptr %60, align 1, !tbaa !35
  %62 = zext i8 %61 to i64
  %63 = load ptr, ptr %6, align 8, !tbaa !23
  %64 = load i64, ptr %12, align 8, !tbaa !26
  %65 = getelementptr inbounds nuw i8, ptr %63, i64 %64
  %66 = load i8, ptr %65, align 1, !tbaa !35
  %67 = zext i8 %66 to i64
  %68 = shl i64 %67, 8
  %69 = or i64 %62, %68
  %70 = trunc i64 %69 to i32
  store i32 %70, ptr %14, align 4, !tbaa !27
  br label %86

71:                                               ; preds = %53
  %72 = load ptr, ptr %6, align 8, !tbaa !23
  %73 = load i64, ptr %12, align 8, !tbaa !26
  %74 = getelementptr inbounds nuw i8, ptr %72, i64 %73
  %75 = load i8, ptr %74, align 1, !tbaa !35
  %76 = zext i8 %75 to i64
  %77 = load ptr, ptr %6, align 8, !tbaa !23
  %78 = load i64, ptr %12, align 8, !tbaa !26
  %79 = add i64 %78, 1
  %80 = getelementptr inbounds nuw i8, ptr %77, i64 %79
  %81 = load i8, ptr %80, align 1, !tbaa !35
  %82 = zext i8 %81 to i64
  %83 = shl i64 %82, 8
  %84 = or i64 %76, %83
  %85 = trunc i64 %84 to i32
  store i32 %85, ptr %14, align 4, !tbaa !27
  br label %86

86:                                               ; preds = %71, %56
  %87 = load i32, ptr %14, align 4, !tbaa !27
  %88 = and i32 %87, 65535
  store i32 %88, ptr %14, align 4, !tbaa !27
  %89 = load i32, ptr %14, align 4, !tbaa !27
  switch i32 %89, label %91 [
    i32 65534, label %90
    i32 65535, label %90
  ]

90:                                               ; preds = %86, %86
  store i32 0, ptr %5, align 4
  store i32 1, ptr %13, align 4
  br label %153

91:                                               ; preds = %86
  %92 = load i32, ptr %14, align 4, !tbaa !27
  %93 = icmp uge i32 %92, 64976
  br i1 %93, label %94, label %98

94:                                               ; preds = %91
  %95 = load i32, ptr %14, align 4, !tbaa !27
  %96 = icmp ule i32 %95, 65007
  br i1 %96, label %97, label %98

97:                                               ; preds = %94
  store i32 0, ptr %5, align 4
  store i32 1, ptr %13, align 4
  br label %153

98:                                               ; preds = %94, %91
  br label %99

99:                                               ; preds = %98
  %100 = load i32, ptr %11, align 4, !tbaa !27
  %101 = icmp ne i32 %100, 0
  br i1 %101, label %102, label %117

102:                                              ; preds = %99
  %103 = load i32, ptr %14, align 4, !tbaa !27
  %104 = icmp uge i32 %103, 56320
  br i1 %104, label %105, label %108

105:                                              ; preds = %102
  %106 = load i32, ptr %14, align 4, !tbaa !27
  %107 = icmp ule i32 %106, 57343
  br i1 %107, label %109, label %108

108:                                              ; preds = %105, %102
  store i32 0, ptr %5, align 4
  store i32 1, ptr %13, align 4
  br label %153

109:                                              ; preds = %105
  %110 = load i32, ptr %11, align 4, !tbaa !27
  %111 = sub i32 %110, 1
  %112 = mul i32 1024, %111
  %113 = add i32 65536, %112
  %114 = load i32, ptr %14, align 4, !tbaa !27
  %115 = sub i32 %114, 56320
  %116 = add i32 %113, %115
  store i32 %116, ptr %14, align 4, !tbaa !27
  store i32 0, ptr %11, align 4, !tbaa !27
  br label %117

117:                                              ; preds = %109, %99
  %118 = load i32, ptr %14, align 4, !tbaa !27
  %119 = icmp ult i32 %118, 128
  br i1 %119, label %120, label %128

120:                                              ; preds = %117
  %121 = load i32, ptr %14, align 4, !tbaa !27
  %122 = zext i32 %121 to i64
  %123 = getelementptr inbounds nuw [256 x i8], ptr @text_chars, i64 0, i64 %122
  %124 = load i8, ptr %123, align 1, !tbaa !35
  %125 = sext i8 %124 to i32
  %126 = icmp ne i32 %125, 1
  br i1 %126, label %127, label %128

127:                                              ; preds = %120
  store i32 0, ptr %5, align 4
  store i32 1, ptr %13, align 4
  br label %153

128:                                              ; preds = %120, %117
  %129 = load i32, ptr %14, align 4, !tbaa !27
  %130 = zext i32 %129 to i64
  %131 = load ptr, ptr %8, align 8, !tbaa !13
  %132 = load ptr, ptr %9, align 8, !tbaa !13
  %133 = load i64, ptr %132, align 8, !tbaa !26
  %134 = add i64 %133, 1
  store i64 %134, ptr %132, align 8, !tbaa !26
  %135 = getelementptr inbounds nuw i64, ptr %131, i64 %133
  store i64 %130, ptr %135, align 8, !tbaa !26
  %136 = load i32, ptr %14, align 4, !tbaa !27
  %137 = icmp uge i32 %136, 55296
  br i1 %137, label %138, label %145

138:                                              ; preds = %128
  %139 = load i32, ptr %14, align 4, !tbaa !27
  %140 = icmp ule i32 %139, 56319
  br i1 %140, label %141, label %145

141:                                              ; preds = %138
  %142 = load i32, ptr %14, align 4, !tbaa !27
  %143 = sub i32 %142, 55296
  %144 = add i32 %143, 1
  store i32 %144, ptr %11, align 4, !tbaa !27
  br label %145

145:                                              ; preds = %141, %138, %128
  %146 = load i32, ptr %14, align 4, !tbaa !27
  %147 = icmp uge i32 %146, 56320
  br i1 %147, label %148, label %152

148:                                              ; preds = %145
  %149 = load i32, ptr %14, align 4, !tbaa !27
  %150 = icmp ule i32 %149, 57343
  br i1 %150, label %151, label %152

151:                                              ; preds = %148
  store i32 0, ptr %5, align 4
  store i32 1, ptr %13, align 4
  br label %153

152:                                              ; preds = %148, %145
  store i32 0, ptr %13, align 4
  br label %153

153:                                              ; preds = %152, %151, %127, %108, %97, %90
  call void @llvm.lifetime.end.p0(i64 4, ptr %14) #6
  %154 = load i32, ptr %13, align 4
  switch i32 %154, label %162 [
    i32 0, label %155
  ]

155:                                              ; preds = %153
  br label %156

156:                                              ; preds = %155
  %157 = load i64, ptr %12, align 8, !tbaa !26
  %158 = add i64 %157, 2
  store i64 %158, ptr %12, align 8, !tbaa !26
  br label %48

159:                                              ; preds = %48
  %160 = load i32, ptr %10, align 4, !tbaa !27
  %161 = add nsw i32 1, %160
  store i32 %161, ptr %5, align 4
  store i32 1, ptr %13, align 4
  br label %162

162:                                              ; preds = %159, %153, %44, %17
  call void @llvm.lifetime.end.p0(i64 8, ptr %12) #6
  call void @llvm.lifetime.end.p0(i64 4, ptr %11) #6
  call void @llvm.lifetime.end.p0(i64 4, ptr %10) #6
  %163 = load i32, ptr %5, align 4
  ret i32 %163
}